#include <math.h>
#include <stdio.h>
#include <stdlib.h>
#include <string.h>

int main (){

int i,b,d;
double n,e;
char s1[500],s2[500];
int c=0;

scanf ("%lf\n",&n);
gets(s1);
gets(s2);
b=strlen(s1);
d=strlen(s2);
for (i=0;i<b;i++)
	{if((s1[i]!='A')&&(s1[i]!='T')&&(s1[i]!='C')&&(s1[i]!='G'))
{printf ("error");
return 0;}
	}

for (i=0;i<b;i++)
	{if((s2[i]!='A')&&(s2[i]!='T')&&(s2[i]!='C')&&(s2[i]!='G'))
{printf ("error");
return 0;}
	}



if(b==d)
	{for(i=0;i<b;i++)
		{if(s1[i]==s2[i])
				{c++;}
			}
	e=1.0*c/b;
	if(e>=n)
		{printf ("yes");}
	else 
		{printf ("no");}
	}


else 
	{printf ("error");
	}

	
return 0;
}